; ModuleID = '17/683.c'
source_filename = "17/683.c"
target datalayout = "e-m:e-p270:32:32-p271:32:32-p272:64:64-i64:64-f80:128-n8:16:32:64-S128"
target triple = "x86_64-pc-linux-gnu"

@.str = private unnamed_addr constant [3 x i8] c"%d\00", align 1
@.str.1 = private unnamed_addr constant [3 x i8] c"%s\00", align 1
@.str.2 = private unnamed_addr constant [4 x i8] c"%s\0A\00", align 1
@.str.3 = private unnamed_addr constant [2 x i8] c"$\00", align 1
@.str.4 = private unnamed_addr constant [2 x i8] c" \00", align 1
@.str.5 = private unnamed_addr constant [2 x i8] c"?\00", align 1
@.str.6 = private unnamed_addr constant [2 x i8] c"\0A\00", align 1

; Function Attrs: noinline nounwind uwtable
define dso_local void @main() #0 {
  %1 = alloca i32, align 4
  %2 = alloca i32, align 4
  %3 = alloca [101 x i8], align 16
  %4 = alloca i32, align 4
  %5 = alloca i32, align 4
  %6 = alloca i32, align 4
  %7 = call i32 (i8*, ...) @__isoc99_scanf(i8* getelementptr inbounds ([3 x i8], [3 x i8]* @.str, i64 0, i64 0), i32* %1)
  store i32 0, i32* %2, align 4
  br label %8

8:                                                ; preds = %177, %0
  %9 = load i32, i32* %2, align 4
  %10 = load i32, i32* %1, align 4
  %11 = icmp slt i32 %9, %10
  br i1 %11, label %12, label %180

12:                                               ; preds = %8
  %13 = getelementptr inbounds [101 x i8], [101 x i8]* %3, i64 0, i64 0
  %14 = call i32 (i8*, ...) @__isoc99_scanf(i8* getelementptr inbounds ([3 x i8], [3 x i8]* @.str.1, i64 0, i64 0), i8* %13)
  %15 = getelementptr inbounds [101 x i8], [101 x i8]* %3, i64 0, i64 0
  %16 = call i32 (i8*, ...) @printf(i8* getelementptr inbounds ([4 x i8], [4 x i8]* @.str.2, i64 0, i64 0), i8* %15)
  store i32 0, i32* %4, align 4
  br label %17

17:                                               ; preds = %172, %12
  %18 = load i32, i32* %4, align 4
  %19 = sext i32 %18 to i64
  %20 = getelementptr inbounds [101 x i8], [101 x i8]* %3, i64 0, i64 0
  %21 = call i64 @strlen(i8* %20) #3
  %22 = icmp ult i64 %19, %21
  br i1 %22, label %23, label %175

23:                                               ; preds = %17
  %24 = load i32, i32* %4, align 4
  %25 = sext i32 %24 to i64
  %26 = getelementptr inbounds [101 x i8], [101 x i8]* %3, i64 0, i64 %25
  %27 = load i8, i8* %26, align 1
  %28 = sext i8 %27 to i32
  %29 = icmp eq i32 %28, 40
  br i1 %29, label %30, label %99

30:                                               ; preds = %23
  %31 = load i32, i32* %4, align 4
  %32 = sext i32 %31 to i64
  %33 = getelementptr inbounds [101 x i8], [101 x i8]* %3, i64 0, i64 0
  %34 = call i64 @strlen(i8* %33) #3
  %35 = sub i64 %34, 1
  %36 = icmp eq i64 %32, %35
  br i1 %36, label %37, label %39

37:                                               ; preds = %30
  %38 = call i32 (i8*, ...) @printf(i8* getelementptr inbounds ([2 x i8], [2 x i8]* @.str.3, i64 0, i64 0))
  br label %98

39:                                               ; preds = %30
  store i32 1, i32* %6, align 4
  %40 = load i32, i32* %4, align 4
  %41 = add nsw i32 %40, 1
  store i32 %41, i32* %5, align 4
  br label %42

42:                                               ; preds = %87, %39
  %43 = load i32, i32* %5, align 4
  %44 = sext i32 %43 to i64
  %45 = getelementptr inbounds [101 x i8], [101 x i8]* %3, i64 0, i64 0
  %46 = call i64 @strlen(i8* %45) #3
  %47 = icmp ult i64 %44, %46
  br i1 %47, label %48, label %90

48:                                               ; preds = %42
  %49 = load i32, i32* %5, align 4
  %50 = sext i32 %49 to i64
  %51 = getelementptr inbounds [101 x i8], [101 x i8]* %3, i64 0, i64 %50
  %52 = load i8, i8* %51, align 1
  %53 = sext i8 %52 to i32
  %54 = icmp eq i32 %53, 41
  br i1 %54, label %55, label %61

55:                                               ; preds = %48
  %56 = load i32, i32* %6, align 4
  %57 = icmp eq i32 %56, 1
  br i1 %57, label %58, label %61

58:                                               ; preds = %55
  %59 = load i32, i32* %6, align 4
  %60 = add nsw i32 %59, -1
  store i32 %60, i32* %6, align 4
  br label %90

61:                                               ; preds = %55, %48
  %62 = load i32, i32* %5, align 4
  %63 = sext i32 %62 to i64
  %64 = getelementptr inbounds [101 x i8], [101 x i8]* %3, i64 0, i64 %63
  %65 = load i8, i8* %64, align 1
  %66 = sext i8 %65 to i32
  %67 = icmp eq i32 %66, 41
  br i1 %67, label %68, label %74

68:                                               ; preds = %61
  %69 = load i32, i32* %6, align 4
  %70 = icmp ne i32 %69, 1
  br i1 %70, label %71, label %74

71:                                               ; preds = %68
  %72 = load i32, i32* %6, align 4
  %73 = sub nsw i32 %72, 1
  store i32 %73, i32* %6, align 4
  br label %85

74:                                               ; preds = %68, %61
  %75 = load i32, i32* %5, align 4
  %76 = sext i32 %75 to i64
  %77 = getelementptr inbounds [101 x i8], [101 x i8]* %3, i64 0, i64 %76
  %78 = load i8, i8* %77, align 1
  %79 = sext i8 %78 to i32
  %80 = icmp eq i32 %79, 40
  br i1 %80, label %81, label %84

81:                                               ; preds = %74
  %82 = load i32, i32* %6, align 4
  %83 = add nsw i32 %82, 1
  store i32 %83, i32* %6, align 4
  br label %84

84:                                               ; preds = %81, %74
  br label %85

85:                                               ; preds = %84, %71
  br label %86

86:                                               ; preds = %85
  br label %87

87:                                               ; preds = %86
  %88 = load i32, i32* %5, align 4
  %89 = add nsw i32 %88, 1
  store i32 %89, i32* %5, align 4
  br label %42

90:                                               ; preds = %58, %42
  %91 = load i32, i32* %6, align 4
  %92 = icmp eq i32 %91, 0
  br i1 %92, label %93, label %95

93:                                               ; preds = %90
  %94 = call i32 (i8*, ...) @printf(i8* getelementptr inbounds ([2 x i8], [2 x i8]* @.str.4, i64 0, i64 0))
  br label %97

95:                                               ; preds = %90
  %96 = call i32 (i8*, ...) @printf(i8* getelementptr inbounds ([2 x i8], [2 x i8]* @.str.3, i64 0, i64 0))
  br label %97

97:                                               ; preds = %95, %93
  br label %98

98:                                               ; preds = %97, %37
  br label %171

99:                                               ; preds = %23
  %100 = load i32, i32* %4, align 4
  %101 = sext i32 %100 to i64
  %102 = getelementptr inbounds [101 x i8], [101 x i8]* %3, i64 0, i64 %101
  %103 = load i8, i8* %102, align 1
  %104 = sext i8 %103 to i32
  %105 = icmp eq i32 %104, 41
  br i1 %105, label %106, label %168

106:                                              ; preds = %99
  %107 = load i32, i32* %4, align 4
  %108 = icmp eq i32 %107, 0
  br i1 %108, label %109, label %111

109:                                              ; preds = %106
  %110 = call i32 (i8*, ...) @printf(i8* getelementptr inbounds ([2 x i8], [2 x i8]* @.str.5, i64 0, i64 0))
  br label %167

111:                                              ; preds = %106
  store i32 1, i32* %6, align 4
  %112 = load i32, i32* %4, align 4
  %113 = sub nsw i32 %112, 1
  store i32 %113, i32* %5, align 4
  br label %114

114:                                              ; preds = %156, %111
  %115 = load i32, i32* %5, align 4
  %116 = icmp sge i32 %115, 0
  br i1 %116, label %117, label %159

117:                                              ; preds = %114
  %118 = load i32, i32* %5, align 4
  %119 = sext i32 %118 to i64
  %120 = getelementptr inbounds [101 x i8], [101 x i8]* %3, i64 0, i64 %119
  %121 = load i8, i8* %120, align 1
  %122 = sext i8 %121 to i32
  %123 = icmp eq i32 %122, 40
  br i1 %123, label %124, label %130

124:                                              ; preds = %117
  %125 = load i32, i32* %6, align 4
  %126 = icmp eq i32 %125, 1
  br i1 %126, label %127, label %130

127:                                              ; preds = %124
  %128 = load i32, i32* %6, align 4
  %129 = add nsw i32 %128, -1
  store i32 %129, i32* %6, align 4
  br label %159

130:                                              ; preds = %124, %117
  %131 = load i32, i32* %5, align 4
  %132 = sext i32 %131 to i64
  %133 = getelementptr inbounds [101 x i8], [101 x i8]* %3, i64 0, i64 %132
  %134 = load i8, i8* %133, align 1
  %135 = sext i8 %134 to i32
  %136 = icmp eq i32 %135, 40
  br i1 %136, label %137, label %143

137:                                              ; preds = %130
  %138 = load i32, i32* %6, align 4
  %139 = icmp ne i32 %138, 1
  br i1 %139, label %140, label %143

140:                                              ; preds = %137
  %141 = load i32, i32* %6, align 4
  %142 = sub nsw i32 %141, 1
  store i32 %142, i32* %6, align 4
  br label %154

143:                                              ; preds = %137, %130
  %144 = load i32, i32* %5, align 4
  %145 = sext i32 %144 to i64
  %146 = getelementptr inbounds [101 x i8], [101 x i8]* %3, i64 0, i64 %145
  %147 = load i8, i8* %146, align 1
  %148 = sext i8 %147 to i32
  %149 = icmp eq i32 %148, 41
  br i1 %149, label %150, label %153

150:                                              ; preds = %143
  %151 = load i32, i32* %6, align 4
  %152 = add nsw i32 %151, 1
  store i32 %152, i32* %6, align 4
  br label %153

153:                                              ; preds = %150, %143
  br label %154

154:                                              ; preds = %153, %140
  br label %155

155:                                              ; preds = %154
  br label %156

156:                                              ; preds = %155
  %157 = load i32, i32* %5, align 4
  %158 = add nsw i32 %157, -1
  store i32 %158, i32* %5, align 4
  br label %114

159:                                              ; preds = %127, %114
  %160 = load i32, i32* %6, align 4
  %161 = icmp eq i32 %160, 0
  br i1 %161, label %162, label %164

162:                                              ; preds = %159
  %163 = call i32 (i8*, ...) @printf(i8* getelementptr inbounds ([2 x i8], [2 x i8]* @.str.4, i64 0, i64 0))
  br label %166

164:                                              ; preds = %159
  %165 = call i32 (i8*, ...) @printf(i8* getelementptr inbounds ([2 x i8], [2 x i8]* @.str.5, i64 0, i64 0))
  br label %166

166:                                              ; preds = %164, %162
  br label %167

167:                                              ; preds = %166, %109
  br label %170

168:                                              ; preds = %99
  %169 = call i32 (i8*, ...) @printf(i8* getelementptr inbounds ([2 x i8], [2 x i8]* @.str.4, i64 0, i64 0))
  br label %170

170:                                              ; preds = %168, %167
  br label %171

171:                                              ; preds = %170, %98
  br label %172

172:                                              ; preds = %171
  %173 = load i32, i32* %4, align 4
  %174 = add nsw i32 %173, 1
  store i32 %174, i32* %4, align 4
  br label %17

175:                                              ; preds = %17
  %176 = call i32 (i8*, ...) @printf(i8* getelementptr inbounds ([2 x i8], [2 x i8]* @.str.6, i64 0, i64 0))
  br label %177

177:                                              ; preds = %175
  %178 = load i32, i32* %2, align 4
  %179 = add nsw i32 %178, 1
  store i32 %179, i32* %2, align 4
  br label %8

180:                                              ; preds = %8
  ret void
}

declare dso_local i32 @__isoc99_scanf(i8*, ...) #1

declare dso_local i32 @printf(i8*, ...) #1

; Function Attrs: nounwind readonly
declare dso_local i64 @strlen(i8*) #2


!llvm.module.flags = !{!0}
!llvm.ident = !{!1}

!0 = !{i32 1, !"wchar_size", i32 4}
!1 = !{!"clang version 10.0.0-4ubuntu1 "}
